; Function Attrs: uwtable
define internal void @__cxx_global_var_init.4() #4 section ".text.startup" comdat($_ZN3nix8LogStore13operationNameB5cxx11E) personality ptr @__gxx_personality_v0 {
  %1 = alloca %"class.std::allocator", align 1
  %2 = load atomic i8, ptr @_ZGVN3nix8LogStore13operationNameB5cxx11E acquire, align 8
  %3 = icmp eq i8 %2, 0
  br i1 %3, label %4, label %9

4:                                                ; preds = %0
  %5 = tail call i32 @__cxa_guard_acquire(ptr nonnull @_ZGVN3nix8LogStore13operationNameB5cxx11E) #23
  %.not = icmp eq i32 %5, 0
  br i1 %.not, label %9, label %6

6:                                                ; preds = %4
  call void @_ZNSaIcEC1Ev(ptr noundef nonnull align 1 dereferenceable(1) %1) #23
  invoke void @_ZNSt7__cxx1112basic_stringIcSt11char_traitsIcESaIcEEC2IS3_EEPKcRKS3_(ptr noundef nonnull align 8 dereferenceable(32) @_ZN3nix8LogStore13operationNameB5cxx11E, ptr noundef nonnull @.str, ptr noundef nonnull align 1 dereferenceable(1) %1)
          to label %7 unwind label %10

7:                                                ; preds = %6
  call void @_ZNSaIcED1Ev(ptr noundef nonnull align 1 dereferenceable(1) %1) #23
  %8 = call i32 @__cxa_atexit(ptr nonnull @_ZNSt7__cxx1112basic_stringIcSt11char_traitsIcESaIcEED2Ev, ptr nonnull @_ZN3nix8LogStore13operationNameB5cxx11E, ptr nonnull @__dso_handle) #23
  call void @__cxa_guard_release(ptr nonnull @_ZGVN3nix8LogStore13operationNameB5cxx11E) #23
  br label %9

9:                                                ; preds = %7, %4, %0
  ret void

10:                                               ; preds = %6
  %11 = landingpad { ptr, i32 }
          cleanup
  call void @_ZNSaIcED1Ev(ptr noundef nonnull align 1 dereferenceable(1) %1) #23
  call void @__cxa_guard_abort(ptr nonnull @_ZGVN3nix8LogStore13operationNameB5cxx11E) #23
  resume { ptr, i32 } %11
}